target datalayout = "e-m:e-p270:32:32-p271:32:32-p272:64:64-i64:64-i128:128-f80:128-n8:16:32:64-S128"
target triple = "x86_64-pc-linux-gnu"

%struct.AVFilterContext = type { ptr, ptr, ptr, ptr, ptr, i32, ptr, ptr, i32, ptr, ptr, i32, i32, ptr, ptr, ptr, ptr, i32, ptr, i32, i32 }
%struct.FilterLink = type { %struct.AVFilterLink, ptr, i64, i64, i32, i32, i64, i64, i64, i64, %struct.AVRational, ptr }
%struct.AVFilterLink = type { ptr, ptr, ptr, ptr, i32, i32, i32, i32, %struct.AVRational, i32, i32, i32, %struct.AVChannelLayout, %struct.AVRational, ptr, i32, %struct.AVFilterFormatsConfig, %struct.AVFilterFormatsConfig }
%struct.AVChannelLayout = type { i32, i32, %union.anon, ptr }
%union.anon = type { i64 }
%struct.AVFilterFormatsConfig = type { ptr, ptr, ptr, ptr, ptr }
%struct.AVRational = type { i32, i32 }
%struct.BufferSinkContext = type { ptr, i32, i32, ptr, i32, ptr, i32, ptr, i32, ptr, i32, ptr, i32, ptr, i32, ptr, i32, ptr, i32, ptr, i32, ptr, i32, ptr, i32, ptr, i32, ptr }
%struct.FilterLinkInternal = type { %struct.FilterLink, ptr, %struct.FFFrameQueue, i32, i32, i64, i32, i32, i32, i32 }
%struct.FFFrameQueue = type { ptr, i64, i64, i64, %struct.FFFrameBucket, i64, i64, i64, i64, i32 }
%struct.FFFrameBucket = type { ptr }
%struct.AVFilter = type { ptr, ptr, ptr, ptr, ptr, i32 }

@.str.7 = private unnamed_addr constant [50 x i8] c"%d buffers queued in %s, something may be wrong.\0A\00", align 1

; Function Attrs: inlinehint nounwind uwtable
define internal ptr @av_x_if_null(ptr noundef %0, ptr noundef %1) #1 {
  %3 = alloca ptr, align 8
  %4 = alloca ptr, align 8
  store ptr %0, ptr %3, align 8, !tbaa !78
  store ptr %1, ptr %4, align 8, !tbaa !78
  %5 = load ptr, ptr %3, align 8, !tbaa !78
  %6 = icmp ne ptr %5, null
  br i1 %6, label %7, label %9

7:                                                ; preds = %2
  %8 = load ptr, ptr %3, align 8, !tbaa !78
  br label %11

9:                                                ; preds = %2
  %10 = load ptr, ptr %4, align 8, !tbaa !78
  br label %11

11:                                               ; preds = %9, %7
  %12 = phi ptr [ %8, %7 ], [ %10, %9 ]
  %13 = ptrtoint ptr %12 to i64
  %14 = inttoptr i64 %13 to ptr
  ret ptr %14
}

; Function Attrs: inlinehint nounwind uwtable
define internal i64 @ff_framequeue_queued_frames(ptr noundef %0) #1 {
  %2 = alloca ptr, align 8
  store ptr %0, ptr %2, align 8, !tbaa !113
  %3 = load ptr, ptr %2, align 8, !tbaa !113
  %4 = getelementptr inbounds nuw %struct.FFFrameQueue, ptr %3, i32 0, i32 3
  %5 = load i64, ptr %4, align 8, !tbaa !115
  ret i64 %5
}

; Function Attrs: inlinehint nounwind uwtable
define internal ptr @ff_link_internal(ptr noundef %0) #1 {
  %2 = alloca ptr, align 8
  store ptr %0, ptr %2, align 8, !tbaa !25
  %3 = load ptr, ptr %2, align 8, !tbaa !25
  ret ptr %3
}

; Function Attrs: nounwind uwtable
define internal i32 @activate(ptr noundef %0) #0 {
  %2 = alloca ptr, align 8
  %3 = alloca ptr, align 8
  %4 = alloca ptr, align 8
  store ptr %0, ptr %2, align 8, !tbaa !4
  call void @llvm.lifetime.start.p0(i64 8, ptr %3) #9
  %5 = load ptr, ptr %2, align 8, !tbaa !4
  %6 = getelementptr inbounds nuw %struct.AVFilterContext, ptr %5, i32 0, i32 9
  %7 = load ptr, ptr %6, align 8, !tbaa !37
  store ptr %7, ptr %3, align 8, !tbaa !38
  call void @llvm.lifetime.start.p0(i64 8, ptr %4) #9
  %8 = load ptr, ptr %2, align 8, !tbaa !4
  %9 = getelementptr inbounds nuw %struct.AVFilterContext, ptr %8, i32 0, i32 4
  %10 = load ptr, ptr %9, align 8, !tbaa !13
  %11 = getelementptr inbounds ptr, ptr %10, i64 0
  %12 = load ptr, ptr %11, align 8, !tbaa !25
  %13 = call ptr @ff_link_internal(ptr noundef %12)
  store ptr %13, ptr %4, align 8, !tbaa !40
  %14 = load ptr, ptr %3, align 8, !tbaa !38
  %15 = getelementptr inbounds nuw %struct.BufferSinkContext, ptr %14, i32 0, i32 1
  %16 = load i32, ptr %15, align 8, !tbaa !63
  %17 = icmp ne i32 %16, 0
  br i1 %17, label %18, label %45

18:                                               ; preds = %1
  %19 = load ptr, ptr %4, align 8, !tbaa !40
  %20 = getelementptr inbounds nuw %struct.FilterLinkInternal, ptr %19, i32 0, i32 2
  %21 = call i64 @ff_framequeue_queued_frames(ptr noundef %20)
  %22 = load ptr, ptr %3, align 8, !tbaa !38
  %23 = getelementptr inbounds nuw %struct.BufferSinkContext, ptr %22, i32 0, i32 1
  %24 = load i32, ptr %23, align 8, !tbaa !63
  %25 = zext i32 %24 to i64
  %26 = icmp uge i64 %21, %25
  br i1 %26, label %27, label %45

27:                                               ; preds = %18
  %28 = load ptr, ptr %2, align 8, !tbaa !4
  %29 = load ptr, ptr %3, align 8, !tbaa !38
  %30 = getelementptr inbounds nuw %struct.BufferSinkContext, ptr %29, i32 0, i32 1
  %31 = load i32, ptr %30, align 8, !tbaa !63
  %32 = load ptr, ptr %2, align 8, !tbaa !4
  %33 = getelementptr inbounds nuw %struct.AVFilterContext, ptr %32, i32 0, i32 2
  %34 = load ptr, ptr %33, align 8, !tbaa !64
  %35 = load ptr, ptr %2, align 8, !tbaa !4
  %36 = getelementptr inbounds nuw %struct.AVFilterContext, ptr %35, i32 0, i32 1
  %37 = load ptr, ptr %36, align 8, !tbaa !57
  %38 = getelementptr inbounds nuw %struct.AVFilter, ptr %37, i32 0, i32 0
  %39 = load ptr, ptr %38, align 8, !tbaa !65
  %40 = call ptr @av_x_if_null(ptr noundef %34, ptr noundef %39)
  call void (ptr, i32, ptr, ...) @av_log(ptr noundef %28, i32 noundef 24, ptr noundef @.str.7, i32 noundef %31, ptr noundef %40)
  %41 = load ptr, ptr %3, align 8, !tbaa !38
  %42 = getelementptr inbounds nuw %struct.BufferSinkContext, ptr %41, i32 0, i32 1
  %43 = load i32, ptr %42, align 8, !tbaa !63
  %44 = mul i32 %43, 10
  store i32 %44, ptr %42, align 8, !tbaa !63
  br label %45

45:                                               ; preds = %27, %18, %1
  call void @llvm.lifetime.end.p0(i64 8, ptr %4) #9
  call void @llvm.lifetime.end.p0(i64 8, ptr %3) #9
  ret i32 0
}